TN:
SF:/usr/include/c++/11/iostream
end_of_record
SF:/home/sysprog/Downloads/assignment4/problem2/src/main.cpp
FN:14,_ZN8Employee11validateAgeEi
FNDA:5,_ZN8Employee11validateAgeEi
FN:18,_ZN8Employee12validateNameEPKc
FNDA:6,_ZN8Employee12validateNameEPKc
FN:22,_ZN8Employee14validateSalaryEd
FNDA:5,_ZN8Employee14validateSalaryEd
FN:27,_ZN8EmployeeC2EPKciid
FNDA:6,_ZN8EmployeeC2EPKciid
FN:36,_ZN8EmployeeC2ERKS_
FNDA:1,_ZN8EmployeeC2ERKS_
FN:42,_ZN8EmployeeD2Ev
FNDA:4,_ZN8EmployeeD2Ev
FN:47,_ZNK8Employee7displayEv
FNDA:2,_ZNK8Employee7displayEv
FN:51,_ZNK8EmployeeplERKS_
FNDA:1,_ZNK8EmployeeplERKS_
FN:56,_ZN8Employee22get_count_of_EmployeesEv
FNDA:3,_ZN8Employee22get_count_of_EmployeesEv
FN:60,_ZN8Employee12updateSalaryEd
FNDA:1,_ZN8Employee12updateSalaryEd
FN:68,main
FNDA:1,main
DA:14,5
DA:15,5
DA:16,4
DA:18,6
DA:19,6
DA:20,5
DA:22,5
DA:23,5
DA:24,4
DA:27,6
DA:28,6
DA:29,5
DA:30,4
DA:31,3
DA:32,3
DA:33,3
DA:34,3
DA:36,1
DA:37,1
DA:38,1
DA:39,1
DA:40,1
DA:42,4
DA:43,4
DA:44,4
DA:45,4
DA:47,2
DA:48,2
DA:49,2
DA:51,1
DA:52,1
DA:53,1
DA:56,3
DA:57,3
DA:60,1
DA:61,1
DA:62,1
DA:63,1
DA:68,1
DA:69,1
DA:70,1
DA:72,1
DA:74,1
DA:75,1
DA:77,1
DA:78,1
DA:80,1
DA:81,1
DA:85,1
DA:86,1
DA:87,1
DA:88,1
DA:91,1
DA:92,1
DA:93,1
DA:94,1
DA:97,1
DA:98,1
DA:99,1
DA:100,1
DA:102,1
DA:104,1
DA:105,1
end_of_record
